; ModuleID = '35/1173.c'
source_filename = "35/1173.c"
target datalayout = "e-m:e-p270:32:32-p271:32:32-p272:64:64-i64:64-f80:128-n8:16:32:64-S128"
target triple = "x86_64-pc-linux-gnu"

@.str = private unnamed_addr constant [6 x i8] c"%d,%d\00", align 1
@.str.1 = private unnamed_addr constant [3 x i8] c"%d\00", align 1
@.str.2 = private unnamed_addr constant [7 x i8] c"%d+%d\0A\00", align 1
@.str.3 = private unnamed_addr constant [4 x i8] c"No\0A\00", align 1

; Function Attrs: noinline nounwind uwtable
define dso_local i32 @main() #0 {
  %1 = alloca i32, align 4
  %2 = alloca i32, align 4
  %3 = alloca i32, align 4
  %4 = alloca i32, align 4
  %5 = alloca i32, align 4
  %6 = alloca i32, align 4
  %7 = alloca i32, align 4
  %8 = alloca i32, align 4
  %9 = alloca i32, align 4
  %10 = alloca [8 x [8 x i32]], align 16
  store i32 0, i32* %1, align 4
  %11 = call i32 (i8*, ...) @__isoc99_scanf(i8* getelementptr inbounds ([6 x i8], [6 x i8]* @.str, i64 0, i64 0), i32* %8, i32* %9)
  store i32 0, i32* %3, align 4
  br label %12

12:                                               ; preds = %33, %0
  %13 = load i32, i32* %3, align 4
  %14 = load i32, i32* %8, align 4
  %15 = icmp slt i32 %13, %14
  br i1 %15, label %16, label %36

16:                                               ; preds = %12
  store i32 0, i32* %4, align 4
  br label %17

17:                                               ; preds = %29, %16
  %18 = load i32, i32* %4, align 4
  %19 = load i32, i32* %9, align 4
  %20 = icmp slt i32 %18, %19
  br i1 %20, label %21, label %32

21:                                               ; preds = %17
  %22 = load i32, i32* %3, align 4
  %23 = sext i32 %22 to i64
  %24 = getelementptr inbounds [8 x [8 x i32]], [8 x [8 x i32]]* %10, i64 0, i64 %23
  %25 = load i32, i32* %4, align 4
  %26 = sext i32 %25 to i64
  %27 = getelementptr inbounds [8 x i32], [8 x i32]* %24, i64 0, i64 %26
  %28 = call i32 (i8*, ...) @__isoc99_scanf(i8* getelementptr inbounds ([3 x i8], [3 x i8]* @.str.1, i64 0, i64 0), i32* %27)
  br label %29

29:                                               ; preds = %21
  %30 = load i32, i32* %4, align 4
  %31 = add nsw i32 %30, 1
  store i32 %31, i32* %4, align 4
  br label %17

32:                                               ; preds = %17
  br label %33

33:                                               ; preds = %32
  %34 = load i32, i32* %3, align 4
  %35 = add nsw i32 %34, 1
  store i32 %35, i32* %3, align 4
  br label %12

36:                                               ; preds = %12
  store i32 0, i32* %2, align 4
  store i32 0, i32* %3, align 4
  br label %37

37:                                               ; preds = %106, %36
  %38 = load i32, i32* %3, align 4
  %39 = load i32, i32* %8, align 4
  %40 = icmp slt i32 %38, %39
  br i1 %40, label %41, label %44

41:                                               ; preds = %37
  %42 = load i32, i32* %2, align 4
  %43 = icmp eq i32 %42, 0
  br label %44

44:                                               ; preds = %41, %37
  %45 = phi i1 [ false, %37 ], [ %43, %41 ]
  br i1 %45, label %46, label %109

46:                                               ; preds = %44
  store i32 0, i32* %7, align 4
  store i32 0, i32* %4, align 4
  br label %47

47:                                               ; preds = %70, %46
  %48 = load i32, i32* %4, align 4
  %49 = load i32, i32* %9, align 4
  %50 = icmp slt i32 %48, %49
  br i1 %50, label %51, label %73

51:                                               ; preds = %47
  %52 = load i32, i32* %3, align 4
  %53 = sext i32 %52 to i64
  %54 = getelementptr inbounds [8 x [8 x i32]], [8 x [8 x i32]]* %10, i64 0, i64 %53
  %55 = load i32, i32* %4, align 4
  %56 = sext i32 %55 to i64
  %57 = getelementptr inbounds [8 x i32], [8 x i32]* %54, i64 0, i64 %56
  %58 = load i32, i32* %57, align 4
  %59 = load i32, i32* %3, align 4
  %60 = sext i32 %59 to i64
  %61 = getelementptr inbounds [8 x [8 x i32]], [8 x [8 x i32]]* %10, i64 0, i64 %60
  %62 = load i32, i32* %7, align 4
  %63 = sext i32 %62 to i64
  %64 = getelementptr inbounds [8 x i32], [8 x i32]* %61, i64 0, i64 %63
  %65 = load i32, i32* %64, align 4
  %66 = icmp sgt i32 %58, %65
  br i1 %66, label %67, label %69

67:                                               ; preds = %51
  %68 = load i32, i32* %4, align 4
  store i32 %68, i32* %7, align 4
  br label %69

69:                                               ; preds = %67, %51
  br label %70

70:                                               ; preds = %69
  %71 = load i32, i32* %4, align 4
  %72 = add nsw i32 %71, 1
  store i32 %72, i32* %4, align 4
  br label %47

73:                                               ; preds = %47
  store i32 0, i32* %5, align 4
  br label %74

74:                                               ; preds = %96, %73
  %75 = load i32, i32* %5, align 4
  %76 = load i32, i32* %8, align 4
  %77 = icmp slt i32 %75, %76
  br i1 %77, label %78, label %99

78:                                               ; preds = %74
  %79 = load i32, i32* %5, align 4
  %80 = sext i32 %79 to i64
  %81 = getelementptr inbounds [8 x [8 x i32]], [8 x [8 x i32]]* %10, i64 0, i64 %80
  %82 = load i32, i32* %7, align 4
  %83 = sext i32 %82 to i64
  %84 = getelementptr inbounds [8 x i32], [8 x i32]* %81, i64 0, i64 %83
  %85 = load i32, i32* %84, align 4
  %86 = load i32, i32* %3, align 4
  %87 = sext i32 %86 to i64
  %88 = getelementptr inbounds [8 x [8 x i32]], [8 x [8 x i32]]* %10, i64 0, i64 %87
  %89 = load i32, i32* %7, align 4
  %90 = sext i32 %89 to i64
  %91 = getelementptr inbounds [8 x i32], [8 x i32]* %88, i64 0, i64 %90
  %92 = load i32, i32* %91, align 4
  %93 = icmp slt i32 %85, %92
  br i1 %93, label %94, label %95

94:                                               ; preds = %78
  br label %99

95:                                               ; preds = %78
  br label %96

96:                                               ; preds = %95
  %97 = load i32, i32* %5, align 4
  %98 = add nsw i32 %97, 1
  store i32 %98, i32* %5, align 4
  br label %74

99:                                               ; preds = %94, %74
  %100 = load i32, i32* %5, align 4
  %101 = load i32, i32* %8, align 4
  %102 = icmp eq i32 %100, %101
  br i1 %102, label %103, label %105

103:                                              ; preds = %99
  store i32 1, i32* %2, align 4
  %104 = load i32, i32* %3, align 4
  store i32 %104, i32* %6, align 4
  br label %109

105:                                              ; preds = %99
  br label %106

106:                                              ; preds = %105
  %107 = load i32, i32* %3, align 4
  %108 = add nsw i32 %107, 1
  store i32 %108, i32* %3, align 4
  br label %37

109:                                              ; preds = %103, %44
  %110 = load i32, i32* %2, align 4
  %111 = icmp ne i32 %110, 0
  br i1 %111, label %112, label %116

112:                                              ; preds = %109
  %113 = load i32, i32* %6, align 4
  %114 = load i32, i32* %7, align 4
  %115 = call i32 (i8*, ...) @printf(i8* getelementptr inbounds ([7 x i8], [7 x i8]* @.str.2, i64 0, i64 0), i32 %113, i32 %114)
  br label %118

116:                                              ; preds = %109
  %117 = call i32 (i8*, ...) @printf(i8* getelementptr inbounds ([4 x i8], [4 x i8]* @.str.3, i64 0, i64 0))
  br label %118

118:                                              ; preds = %116, %112
  %119 = load i32, i32* %1, align 4
  ret i32 %119
}

declare dso_local i32 @__isoc99_scanf(i8*, ...) #1

declare dso_local i32 @printf(i8*, ...) #1


!llvm.module.flags = !{!0}
!llvm.ident = !{!1}

!0 = !{i32 1, !"wchar_size", i32 4}
!1 = !{!"clang version 10.0.0-4ubuntu1 "}
